target datalayout = "e-m:e-p270:32:32-p271:32:32-p272:64:64-i64:64-i128:128-f80:128-n8:16:32:64-S128"
target triple = "x86_64-pc-linux-gnu"

%struct.JsonManifestParseState = type { ptr, i32, i32, ptr, ptr, ptr, ptr, i32, ptr, i32, ptr, ptr, ptr, i8, ptr, ptr, ptr }
%struct.JsonManifestParseContext = type { ptr, ptr, ptr, ptr, ptr, ptr }

@.str.22 = private unnamed_addr constant [21 x i8] c"unexpected array end\00", align 1
@.str.52 = private unnamed_addr constant [36 x i8] c"could not parse backup manifest: %s\00", align 1

; Function Attrs: nounwind uwtable
define internal void @json_manifest_parse_failure(ptr noundef %0, ptr noundef %1) #0 {
  %3 = alloca ptr, align 8
  %4 = alloca ptr, align 8
  store ptr %0, ptr %3, align 8
  store ptr %1, ptr %4, align 8
  %5 = load ptr, ptr %3, align 8
  %6 = getelementptr inbounds nuw %struct.JsonManifestParseContext, ptr %5, i32 0, i32 5
  %7 = load ptr, ptr %6, align 8
  %8 = load ptr, ptr %3, align 8
  %9 = load ptr, ptr %4, align 8
  call void (ptr, ptr, ...) %7(ptr noundef %8, ptr noundef @.str.52, ptr noundef %9) #6
  unreachable
}

; Function Attrs: nounwind uwtable
define internal i32 @json_manifest_array_end(ptr noundef %0) #0 {
  %2 = alloca ptr, align 8
  %3 = alloca ptr, align 8
  store ptr %0, ptr %2, align 8
  call void @llvm.lifetime.start.p0(i64 8, ptr %3) #5
  %4 = load ptr, ptr %2, align 8
  store ptr %4, ptr %3, align 8
  %5 = load ptr, ptr %3, align 8
  %6 = getelementptr inbounds nuw %struct.JsonManifestParseState, ptr %5, i32 0, i32 1
  %7 = load i32, ptr %6, align 8
  switch i32 %7, label %11 [
    i32 6, label %8
    i32 10, label %8
  ]

8:                                                ; preds = %1, %1
  %9 = load ptr, ptr %3, align 8
  %10 = getelementptr inbounds nuw %struct.JsonManifestParseState, ptr %9, i32 0, i32 1
  store i32 2, ptr %10, align 8
  br label %15

11:                                               ; preds = %1
  %12 = load ptr, ptr %3, align 8
  %13 = getelementptr inbounds nuw %struct.JsonManifestParseState, ptr %12, i32 0, i32 0
  %14 = load ptr, ptr %13, align 8
  call void @json_manifest_parse_failure(ptr noundef %14, ptr noundef @.str.22)
  br label %15

15:                                               ; preds = %11, %8
  call void @llvm.lifetime.end.p0(i64 8, ptr %3) #5
  ret i32 0
}