; Function Attrs: nounwind uwtable
define internal noundef i32 @json_manifest_array_end(ptr noundef captures(none) %0) #0 {
  %2 = getelementptr inbounds nuw i8, ptr %0, i64 8
  %3 = load i32, ptr %2, align 8
  switch i32 %3, label %5 [
    i32 6, label %4
    i32 10, label %4
  ]

4:                                                ; preds = %1, %1
  store i32 2, ptr %2, align 8
  ret i32 0

5:                                                ; preds = %1
  %6 = load ptr, ptr %0, align 8
  %7 = getelementptr inbounds nuw i8, ptr %6, i64 40
  %8 = load ptr, ptr %7, align 8
  tail call void (ptr, ptr, ...) %8(ptr noundef %6, ptr noundef nonnull @.str.52, ptr noundef nonnull @.str.22) #9
  unreachable
}